; Function Attrs: mustprogress nofree norecurse nosync nounwind willreturn memory(argmem: readwrite) uwtable
define void @ff_bgmc_decode_end(ptr noundef captures(none) %0) local_unnamed_addr #4 {
  %2 = getelementptr inbounds nuw i8, ptr %0, i64 16
  %3 = load i32, ptr %2, align 8, !tbaa !11
  %4 = sub nsw i32 0, %3
  %5 = getelementptr inbounds nuw i8, ptr %0, i64 24
  %6 = load i32, ptr %5, align 8, !tbaa !16
  %7 = sub nsw i32 %6, %3
  %8 = icmp slt i32 %3, 16
  %..i.i = tail call i32 @llvm.smin.i32(i32 %7, i32 -16)
  %.0.i.i = select i1 %8, i32 %4, i32 %..i.i
  %9 = add nsw i32 %.0.i.i, %3
  store i32 %9, ptr %2, align 8, !tbaa !11
  ret void
}